target datalayout = "e-m:e-p270:32:32-p271:32:32-p272:64:64-i64:64-i128:128-f80:128-n8:16:32:64-S128"
target triple = "x86_64-pc-linux-gnu"

; Function Attrs: inlinehint nounwind sspstrong uwtable
define hidden i32 @FLAC__bitreader_read_uint32_little_endian(ptr noundef %0, ptr noundef %1) #5 {
  %3 = alloca i32, align 4
  %4 = alloca ptr, align 8
  %5 = alloca ptr, align 8
  %6 = alloca i32, align 4
  %7 = alloca i32, align 4
  %8 = alloca i32, align 4
  store ptr %0, ptr %4, align 8, !tbaa !3
  store ptr %1, ptr %5, align 8, !tbaa !33
  call void @llvm.lifetime.start.p0(i64 4, ptr %6) #10
  call void @llvm.lifetime.start.p0(i64 4, ptr %7) #10
  store i32 0, ptr %7, align 4, !tbaa !32
  %9 = load ptr, ptr %4, align 8, !tbaa !3
  %10 = call i32 @FLAC__bitreader_read_raw_uint32(ptr noundef %9, ptr noundef %7, i32 noundef 8)
  %11 = icmp ne i32 %10, 0
  br i1 %11, label %13, label %12

12:                                               ; preds = %2
  store i32 0, ptr %3, align 4
  store i32 1, ptr %8, align 4
  br label %43

13:                                               ; preds = %2
  %14 = load ptr, ptr %4, align 8, !tbaa !3
  %15 = call i32 @FLAC__bitreader_read_raw_uint32(ptr noundef %14, ptr noundef %6, i32 noundef 8)
  %16 = icmp ne i32 %15, 0
  br i1 %16, label %18, label %17

17:                                               ; preds = %13
  store i32 0, ptr %3, align 4
  store i32 1, ptr %8, align 4
  br label %43

18:                                               ; preds = %13
  %19 = load i32, ptr %6, align 4, !tbaa !32
  %20 = shl i32 %19, 8
  %21 = load i32, ptr %7, align 4, !tbaa !32
  %22 = or i32 %21, %20
  store i32 %22, ptr %7, align 4, !tbaa !32
  %23 = load ptr, ptr %4, align 8, !tbaa !3
  %24 = call i32 @FLAC__bitreader_read_raw_uint32(ptr noundef %23, ptr noundef %6, i32 noundef 8)
  %25 = icmp ne i32 %24, 0
  br i1 %25, label %27, label %26

26:                                               ; preds = %18
  store i32 0, ptr %3, align 4
  store i32 1, ptr %8, align 4
  br label %43

27:                                               ; preds = %18
  %28 = load i32, ptr %6, align 4, !tbaa !32
  %29 = shl i32 %28, 16
  %30 = load i32, ptr %7, align 4, !tbaa !32
  %31 = or i32 %30, %29
  store i32 %31, ptr %7, align 4, !tbaa !32
  %32 = load ptr, ptr %4, align 8, !tbaa !3
  %33 = call i32 @FLAC__bitreader_read_raw_uint32(ptr noundef %32, ptr noundef %6, i32 noundef 8)
  %34 = icmp ne i32 %33, 0
  br i1 %34, label %36, label %35

35:                                               ; preds = %27
  store i32 0, ptr %3, align 4
  store i32 1, ptr %8, align 4
  br label %43

36:                                               ; preds = %27
  %37 = load i32, ptr %6, align 4, !tbaa !32
  %38 = shl i32 %37, 24
  %39 = load i32, ptr %7, align 4, !tbaa !32
  %40 = or i32 %39, %38
  store i32 %40, ptr %7, align 4, !tbaa !32
  %41 = load i32, ptr %7, align 4, !tbaa !32
  %42 = load ptr, ptr %5, align 8, !tbaa !33
  store i32 %41, ptr %42, align 4, !tbaa !32
  store i32 1, ptr %3, align 4
  store i32 1, ptr %8, align 4
  br label %43

43:                                               ; preds = %36, %35, %26, %17, %12
  call void @llvm.lifetime.end.p0(i64 4, ptr %7) #10
  call void @llvm.lifetime.end.p0(i64 4, ptr %6) #10
  %44 = load i32, ptr %3, align 4
  ret i32 %44
}