; Function Attrs: inlinehint nounwind sspstrong uwtable
define hidden range(i32 0, 2) i32 @FLAC__bitreader_read_uint32_little_endian(ptr noundef captures(none) %0, ptr noundef writeonly captures(none) %1) local_unnamed_addr #13 {
  %3 = alloca i32, align 4
  %4 = alloca i32, align 4
  call void @llvm.lifetime.start.p0(i64 4, ptr nonnull %3) #21
  call void @llvm.lifetime.start.p0(i64 4, ptr nonnull %4) #21
  store i32 0, ptr %4, align 4, !tbaa !30
  %5 = call i32 @FLAC__bitreader_read_raw_uint32(ptr noundef %0, ptr noundef nonnull %4, i32 noundef 8)
  %.not = icmp eq i32 %5, 0
  br i1 %.not, label %23, label %6

6:                                                ; preds = %2
  %7 = call i32 @FLAC__bitreader_read_raw_uint32(ptr noundef %0, ptr noundef nonnull %3, i32 noundef 8)
  %.not5 = icmp eq i32 %7, 0
  br i1 %.not5, label %23, label %8

8:                                                ; preds = %6
  %9 = load i32, ptr %3, align 4, !tbaa !30
  %10 = load i32, ptr %4, align 4, !tbaa !30
  %11 = call i32 @FLAC__bitreader_read_raw_uint32(ptr noundef %0, ptr noundef nonnull %3, i32 noundef 8)
  %.not6 = icmp eq i32 %11, 0
  br i1 %.not6, label %23, label %12

12:                                               ; preds = %8
  %13 = load i32, ptr %3, align 4, !tbaa !30
  %14 = call i32 @FLAC__bitreader_read_raw_uint32(ptr noundef %0, ptr noundef nonnull %3, i32 noundef 8)
  %.not7 = icmp eq i32 %14, 0
  br i1 %.not7, label %23, label %15

15:                                               ; preds = %12
  %16 = shl i32 %13, 16
  %17 = shl i32 %9, 8
  %18 = or i32 %10, %17
  %19 = or i32 %16, %18
  %20 = load i32, ptr %3, align 4, !tbaa !30
  %21 = shl i32 %20, 24
  %22 = or i32 %21, %19
  store i32 %22, ptr %1, align 4, !tbaa !30
  br label %23

23:                                               ; preds = %12, %8, %6, %2, %15
  %.0 = phi i32 [ 1, %15 ], [ 0, %2 ], [ 0, %6 ], [ 0, %8 ], [ 0, %12 ]
  call void @llvm.lifetime.end.p0(i64 4, ptr nonnull %4) #21
  call void @llvm.lifetime.end.p0(i64 4, ptr nonnull %3) #21
  ret i32 %.0
}